; ModuleID = '63/2069.c'
source_filename = "63/2069.c"
target datalayout = "e-m:e-p270:32:32-p271:32:32-p272:64:64-i64:64-f80:128-n8:16:32:64-S128"
target triple = "x86_64-pc-linux-gnu"

@.str = private unnamed_addr constant [3 x i8] c"%d\00", align 1
@.str.1 = private unnamed_addr constant [4 x i8] c"%d\0A\00", align 1
@.str.2 = private unnamed_addr constant [4 x i8] c"%d \00", align 1

; Function Attrs: noinline nounwind uwtable
define dso_local i32 @main() #0 {
  %1 = alloca i32, align 4
  %2 = alloca i32, align 4
  %3 = alloca i32, align 4
  %4 = alloca i32, align 4
  %5 = alloca i32, align 4
  %6 = alloca i32, align 4
  %7 = alloca i32, align 4
  %8 = alloca i32, align 4
  %9 = alloca [100 x [100 x i32]], align 16
  %10 = alloca [100 x [100 x i32]], align 16
  %11 = alloca [100 x [100 x i32]], align 16
  store i32 0, i32* %1, align 4
  %12 = bitcast [100 x [100 x i32]]* %11 to i8*
  call void @llvm.memset.p0i8.i64(i8* align 16 %12, i8 0, i64 40000, i1 false)
  %13 = call i32 (i8*, ...) @__isoc99_scanf(i8* getelementptr inbounds ([3 x i8], [3 x i8]* @.str, i64 0, i64 0), i32* %2)
  %14 = call i32 (i8*, ...) @__isoc99_scanf(i8* getelementptr inbounds ([3 x i8], [3 x i8]* @.str, i64 0, i64 0), i32* %3)
  store i32 0, i32* %6, align 4
  br label %15

15:                                               ; preds = %36, %0
  %16 = load i32, i32* %6, align 4
  %17 = load i32, i32* %2, align 4
  %18 = icmp slt i32 %16, %17
  br i1 %18, label %19, label %39

19:                                               ; preds = %15
  store i32 0, i32* %7, align 4
  br label %20

20:                                               ; preds = %32, %19
  %21 = load i32, i32* %7, align 4
  %22 = load i32, i32* %3, align 4
  %23 = icmp slt i32 %21, %22
  br i1 %23, label %24, label %35

24:                                               ; preds = %20
  %25 = load i32, i32* %6, align 4
  %26 = sext i32 %25 to i64
  %27 = getelementptr inbounds [100 x [100 x i32]], [100 x [100 x i32]]* %9, i64 0, i64 %26
  %28 = load i32, i32* %7, align 4
  %29 = sext i32 %28 to i64
  %30 = getelementptr inbounds [100 x i32], [100 x i32]* %27, i64 0, i64 %29
  %31 = call i32 (i8*, ...) @__isoc99_scanf(i8* getelementptr inbounds ([3 x i8], [3 x i8]* @.str, i64 0, i64 0), i32* %30)
  br label %32

32:                                               ; preds = %24
  %33 = load i32, i32* %7, align 4
  %34 = add nsw i32 %33, 1
  store i32 %34, i32* %7, align 4
  br label %20

35:                                               ; preds = %20
  br label %36

36:                                               ; preds = %35
  %37 = load i32, i32* %6, align 4
  %38 = add nsw i32 %37, 1
  store i32 %38, i32* %6, align 4
  br label %15

39:                                               ; preds = %15
  %40 = call i32 (i8*, ...) @__isoc99_scanf(i8* getelementptr inbounds ([3 x i8], [3 x i8]* @.str, i64 0, i64 0), i32* %4)
  %41 = call i32 (i8*, ...) @__isoc99_scanf(i8* getelementptr inbounds ([3 x i8], [3 x i8]* @.str, i64 0, i64 0), i32* %5)
  store i32 0, i32* %6, align 4
  br label %42

42:                                               ; preds = %63, %39
  %43 = load i32, i32* %6, align 4
  %44 = load i32, i32* %4, align 4
  %45 = icmp slt i32 %43, %44
  br i1 %45, label %46, label %66

46:                                               ; preds = %42
  store i32 0, i32* %7, align 4
  br label %47

47:                                               ; preds = %59, %46
  %48 = load i32, i32* %7, align 4
  %49 = load i32, i32* %5, align 4
  %50 = icmp slt i32 %48, %49
  br i1 %50, label %51, label %62

51:                                               ; preds = %47
  %52 = load i32, i32* %6, align 4
  %53 = sext i32 %52 to i64
  %54 = getelementptr inbounds [100 x [100 x i32]], [100 x [100 x i32]]* %10, i64 0, i64 %53
  %55 = load i32, i32* %7, align 4
  %56 = sext i32 %55 to i64
  %57 = getelementptr inbounds [100 x i32], [100 x i32]* %54, i64 0, i64 %56
  %58 = call i32 (i8*, ...) @__isoc99_scanf(i8* getelementptr inbounds ([3 x i8], [3 x i8]* @.str, i64 0, i64 0), i32* %57)
  br label %59

59:                                               ; preds = %51
  %60 = load i32, i32* %7, align 4
  %61 = add nsw i32 %60, 1
  store i32 %61, i32* %7, align 4
  br label %47

62:                                               ; preds = %47
  br label %63

63:                                               ; preds = %62
  %64 = load i32, i32* %6, align 4
  %65 = add nsw i32 %64, 1
  store i32 %65, i32* %6, align 4
  br label %42

66:                                               ; preds = %42
  store i32 0, i32* %6, align 4
  br label %67

67:                                               ; preds = %119, %66
  %68 = load i32, i32* %6, align 4
  %69 = load i32, i32* %2, align 4
  %70 = icmp slt i32 %68, %69
  br i1 %70, label %71, label %122

71:                                               ; preds = %67
  store i32 0, i32* %7, align 4
  br label %72

72:                                               ; preds = %115, %71
  %73 = load i32, i32* %7, align 4
  %74 = load i32, i32* %5, align 4
  %75 = icmp slt i32 %73, %74
  br i1 %75, label %76, label %118

76:                                               ; preds = %72
  store i32 0, i32* %8, align 4
  br label %77

77:                                               ; preds = %111, %76
  %78 = load i32, i32* %8, align 4
  %79 = load i32, i32* %4, align 4
  %80 = icmp slt i32 %78, %79
  br i1 %80, label %81, label %114

81:                                               ; preds = %77
  %82 = load i32, i32* %6, align 4
  %83 = sext i32 %82 to i64
  %84 = getelementptr inbounds [100 x [100 x i32]], [100 x [100 x i32]]* %11, i64 0, i64 %83
  %85 = load i32, i32* %7, align 4
  %86 = sext i32 %85 to i64
  %87 = getelementptr inbounds [100 x i32], [100 x i32]* %84, i64 0, i64 %86
  %88 = load i32, i32* %87, align 4
  %89 = load i32, i32* %6, align 4
  %90 = sext i32 %89 to i64
  %91 = getelementptr inbounds [100 x [100 x i32]], [100 x [100 x i32]]* %9, i64 0, i64 %90
  %92 = load i32, i32* %8, align 4
  %93 = sext i32 %92 to i64
  %94 = getelementptr inbounds [100 x i32], [100 x i32]* %91, i64 0, i64 %93
  %95 = load i32, i32* %94, align 4
  %96 = load i32, i32* %8, align 4
  %97 = sext i32 %96 to i64
  %98 = getelementptr inbounds [100 x [100 x i32]], [100 x [100 x i32]]* %10, i64 0, i64 %97
  %99 = load i32, i32* %7, align 4
  %100 = sext i32 %99 to i64
  %101 = getelementptr inbounds [100 x i32], [100 x i32]* %98, i64 0, i64 %100
  %102 = load i32, i32* %101, align 4
  %103 = mul nsw i32 %95, %102
  %104 = add nsw i32 %88, %103
  %105 = load i32, i32* %6, align 4
  %106 = sext i32 %105 to i64
  %107 = getelementptr inbounds [100 x [100 x i32]], [100 x [100 x i32]]* %11, i64 0, i64 %106
  %108 = load i32, i32* %7, align 4
  %109 = sext i32 %108 to i64
  %110 = getelementptr inbounds [100 x i32], [100 x i32]* %107, i64 0, i64 %109
  store i32 %104, i32* %110, align 4
  br label %111

111:                                              ; preds = %81
  %112 = load i32, i32* %8, align 4
  %113 = add nsw i32 %112, 1
  store i32 %113, i32* %8, align 4
  br label %77

114:                                              ; preds = %77
  br label %115

115:                                              ; preds = %114
  %116 = load i32, i32* %7, align 4
  %117 = add nsw i32 %116, 1
  store i32 %117, i32* %7, align 4
  br label %72

118:                                              ; preds = %72
  br label %119

119:                                              ; preds = %118
  %120 = load i32, i32* %6, align 4
  %121 = add nsw i32 %120, 1
  store i32 %121, i32* %6, align 4
  br label %67

122:                                              ; preds = %67
  store i32 0, i32* %6, align 4
  br label %123

123:                                              ; preds = %160, %122
  %124 = load i32, i32* %6, align 4
  %125 = load i32, i32* %2, align 4
  %126 = icmp slt i32 %124, %125
  br i1 %126, label %127, label %163

127:                                              ; preds = %123
  store i32 0, i32* %7, align 4
  br label %128

128:                                              ; preds = %156, %127
  %129 = load i32, i32* %7, align 4
  %130 = load i32, i32* %5, align 4
  %131 = icmp slt i32 %129, %130
  br i1 %131, label %132, label %159

132:                                              ; preds = %128
  %133 = load i32, i32* %7, align 4
  %134 = load i32, i32* %5, align 4
  %135 = sub nsw i32 %134, 1
  %136 = icmp eq i32 %133, %135
  br i1 %136, label %137, label %146

137:                                              ; preds = %132
  %138 = load i32, i32* %6, align 4
  %139 = sext i32 %138 to i64
  %140 = getelementptr inbounds [100 x [100 x i32]], [100 x [100 x i32]]* %11, i64 0, i64 %139
  %141 = load i32, i32* %7, align 4
  %142 = sext i32 %141 to i64
  %143 = getelementptr inbounds [100 x i32], [100 x i32]* %140, i64 0, i64 %142
  %144 = load i32, i32* %143, align 4
  %145 = call i32 (i8*, ...) @printf(i8* getelementptr inbounds ([4 x i8], [4 x i8]* @.str.1, i64 0, i64 0), i32 %144)
  br label %155

146:                                              ; preds = %132
  %147 = load i32, i32* %6, align 4
  %148 = sext i32 %147 to i64
  %149 = getelementptr inbounds [100 x [100 x i32]], [100 x [100 x i32]]* %11, i64 0, i64 %148
  %150 = load i32, i32* %7, align 4
  %151 = sext i32 %150 to i64
  %152 = getelementptr inbounds [100 x i32], [100 x i32]* %149, i64 0, i64 %151
  %153 = load i32, i32* %152, align 4
  %154 = call i32 (i8*, ...) @printf(i8* getelementptr inbounds ([4 x i8], [4 x i8]* @.str.2, i64 0, i64 0), i32 %153)
  br label %155

155:                                              ; preds = %146, %137
  br label %156

156:                                              ; preds = %155
  %157 = load i32, i32* %7, align 4
  %158 = add nsw i32 %157, 1
  store i32 %158, i32* %7, align 4
  br label %128

159:                                              ; preds = %128
  br label %160

160:                                              ; preds = %159
  %161 = load i32, i32* %6, align 4
  %162 = add nsw i32 %161, 1
  store i32 %162, i32* %6, align 4
  br label %123

163:                                              ; preds = %123
  %164 = load i32, i32* %1, align 4
  ret i32 %164
}

; Function Attrs: argmemonly nounwind willreturn
declare void @llvm.memset.p0i8.i64(i8* nocapture writeonly, i8, i64, i1 immarg) #1

declare dso_local i32 @__isoc99_scanf(i8*, ...) #2

declare dso_local i32 @printf(i8*, ...) #2


!llvm.module.flags = !{!0}
!llvm.ident = !{!1}

!0 = !{i32 1, !"wchar_size", i32 4}
!1 = !{!"clang version 10.0.0-4ubuntu1 "}
