; ModuleID = 'source-C-CXX/62/2069.c'
source_filename = "source-C-CXX/62/2069.c"
target datalayout = "e-m:e-p270:32:32-p271:32:32-p272:64:64-i64:64-f80:128-n8:16:32:64-S128"
target triple = "x86_64-pc-linux-gnu"

@.str = private unnamed_addr constant [3 x i8] c"%d\00", align 1
@.str.1 = private unnamed_addr constant [4 x i8] c"%d\0A\00", align 1
@.str.2 = private unnamed_addr constant [4 x i8] c"%d \00", align 1

; Function Attrs: nofree nounwind sspstrong uwtable
define dso_local i32 @main() local_unnamed_addr #0 {
  %1 = alloca i32, align 4
  %2 = alloca i32, align 4
  %3 = alloca i32, align 4
  %4 = alloca i32, align 4
  %5 = alloca [100 x [100 x i32]], align 16
  %6 = alloca [100 x [100 x i32]], align 16
  %7 = alloca [100 x [100 x i32]], align 16
  %8 = bitcast i32* %1 to i8*
  call void @llvm.lifetime.start.p0i8(i64 4, i8* nonnull %8) #4
  %9 = bitcast i32* %2 to i8*
  call void @llvm.lifetime.start.p0i8(i64 4, i8* nonnull %9) #4
  %10 = bitcast i32* %3 to i8*
  call void @llvm.lifetime.start.p0i8(i64 4, i8* nonnull %10) #4
  %11 = bitcast i32* %4 to i8*
  call void @llvm.lifetime.start.p0i8(i64 4, i8* nonnull %11) #4
  %12 = bitcast [100 x [100 x i32]]* %5 to i8*
  call void @llvm.lifetime.start.p0i8(i64 40000, i8* nonnull %12) #4
  %13 = bitcast [100 x [100 x i32]]* %6 to i8*
  call void @llvm.lifetime.start.p0i8(i64 40000, i8* nonnull %13) #4
  %14 = bitcast [100 x [100 x i32]]* %7 to i8*
  call void @llvm.lifetime.start.p0i8(i64 40000, i8* nonnull %14) #4
  call void @llvm.memset.p0i8.i64(i8* noundef nonnull align 16 dereferenceable(40000) %14, i8 0, i64 40000, i1 false)
  %15 = call i32 (i8*, ...) @__isoc99_scanf(i8* getelementptr inbounds ([3 x i8], [3 x i8]* @.str, i64 0, i64 0), i32* nonnull %1)
  %16 = call i32 (i8*, ...) @__isoc99_scanf(i8* getelementptr inbounds ([3 x i8], [3 x i8]* @.str, i64 0, i64 0), i32* nonnull %2)
  %17 = load i32, i32* %1, align 4, !tbaa !5
  %18 = icmp sgt i32 %17, 0
  %19 = load i32, i32* %2, align 4
  %20 = icmp sgt i32 %19, 0
  %21 = select i1 %18, i1 %20, i1 false
  br i1 %21, label %22, label %43

22:                                               ; preds = %0, %37
  %23 = phi i32 [ %38, %37 ], [ %17, %0 ]
  %24 = phi i32 [ %39, %37 ], [ %19, %0 ]
  %25 = phi i64 [ %40, %37 ], [ 0, %0 ]
  %26 = icmp sgt i32 %24, 0
  br i1 %26, label %27, label %37

27:                                               ; preds = %22, %27
  %28 = phi i64 [ %31, %27 ], [ 0, %22 ]
  %29 = getelementptr inbounds [100 x [100 x i32]], [100 x [100 x i32]]* %5, i64 0, i64 %25, i64 %28
  %30 = call i32 (i8*, ...) @__isoc99_scanf(i8* getelementptr inbounds ([3 x i8], [3 x i8]* @.str, i64 0, i64 0), i32* nonnull %29)
  %31 = add nuw nsw i64 %28, 1
  %32 = load i32, i32* %2, align 4, !tbaa !5
  %33 = sext i32 %32 to i64
  %34 = icmp slt i64 %31, %33
  br i1 %34, label %27, label %35, !llvm.loop !9

35:                                               ; preds = %27
  %36 = load i32, i32* %1, align 4, !tbaa !5
  br label %37

37:                                               ; preds = %35, %22
  %38 = phi i32 [ %36, %35 ], [ %23, %22 ]
  %39 = phi i32 [ %32, %35 ], [ %24, %22 ]
  %40 = add nuw nsw i64 %25, 1
  %41 = sext i32 %38 to i64
  %42 = icmp slt i64 %40, %41
  br i1 %42, label %22, label %43, !llvm.loop !11

43:                                               ; preds = %37, %0
  %44 = call i32 (i8*, ...) @__isoc99_scanf(i8* getelementptr inbounds ([3 x i8], [3 x i8]* @.str, i64 0, i64 0), i32* nonnull %3)
  %45 = call i32 (i8*, ...) @__isoc99_scanf(i8* getelementptr inbounds ([3 x i8], [3 x i8]* @.str, i64 0, i64 0), i32* nonnull %4)
  %46 = load i32, i32* %3, align 4, !tbaa !5
  %47 = icmp sgt i32 %46, 0
  %48 = load i32, i32* %4, align 4
  %49 = icmp sgt i32 %48, 0
  %50 = select i1 %47, i1 %49, i1 false
  br i1 %50, label %51, label %56

51:                                               ; preds = %43, %127
  %52 = phi i32 [ %128, %127 ], [ %46, %43 ]
  %53 = phi i32 [ %129, %127 ], [ %48, %43 ]
  %54 = phi i64 [ %130, %127 ], [ 0, %43 ]
  %55 = icmp sgt i32 %53, 0
  br i1 %55, label %117, label %127

56:                                               ; preds = %127, %43
  %57 = phi i32 [ %48, %43 ], [ %129, %127 ]
  %58 = phi i32 [ %46, %43 ], [ %128, %127 ]
  %59 = load i32, i32* %1, align 4, !tbaa !5
  %60 = icmp sgt i32 %59, 0
  %61 = icmp sgt i32 %57, 0
  %62 = select i1 %60, i1 %61, i1 false
  br i1 %62, label %63, label %164

63:                                               ; preds = %56
  %64 = icmp sgt i32 %58, 0
  br i1 %64, label %65, label %136

65:                                               ; preds = %63
  %66 = zext i32 %59 to i64
  %67 = zext i32 %57 to i64
  %68 = zext i32 %58 to i64
  %69 = and i64 %68, 1
  %70 = icmp eq i32 %58, 1
  %71 = and i64 %68, 4294967294
  %72 = icmp eq i64 %69, 0
  br label %73

73:                                               ; preds = %65, %114
  %74 = phi i64 [ 0, %65 ], [ %115, %114 ]
  br label %75

75:                                               ; preds = %110, %73
  %76 = phi i64 [ %112, %110 ], [ 0, %73 ]
  %77 = getelementptr inbounds [100 x [100 x i32]], [100 x [100 x i32]]* %7, i64 0, i64 %74, i64 %76
  %78 = load i32, i32* %77, align 4, !tbaa !5
  br i1 %70, label %99, label %79

79:                                               ; preds = %75, %79
  %80 = phi i64 [ %96, %79 ], [ 0, %75 ]
  %81 = phi i32 [ %95, %79 ], [ %78, %75 ]
  %82 = phi i64 [ %97, %79 ], [ %71, %75 ]
  %83 = getelementptr inbounds [100 x [100 x i32]], [100 x [100 x i32]]* %5, i64 0, i64 %74, i64 %80
  %84 = load i32, i32* %83, align 8, !tbaa !5
  %85 = getelementptr inbounds [100 x [100 x i32]], [100 x [100 x i32]]* %6, i64 0, i64 %80, i64 %76
  %86 = load i32, i32* %85, align 4, !tbaa !5
  %87 = mul nsw i32 %86, %84
  %88 = add nsw i32 %87, %81
  %89 = or i64 %80, 1
  %90 = getelementptr inbounds [100 x [100 x i32]], [100 x [100 x i32]]* %5, i64 0, i64 %74, i64 %89
  %91 = load i32, i32* %90, align 4, !tbaa !5
  %92 = getelementptr inbounds [100 x [100 x i32]], [100 x [100 x i32]]* %6, i64 0, i64 %89, i64 %76
  %93 = load i32, i32* %92, align 4, !tbaa !5
  %94 = mul nsw i32 %93, %91
  %95 = add nsw i32 %94, %88
  %96 = add nuw nsw i64 %80, 2
  %97 = add i64 %82, -2
  %98 = icmp eq i64 %97, 0
  br i1 %98, label %99, label %79, !llvm.loop !13

99:                                               ; preds = %79, %75
  %100 = phi i32 [ undef, %75 ], [ %95, %79 ]
  %101 = phi i64 [ 0, %75 ], [ %96, %79 ]
  %102 = phi i32 [ %78, %75 ], [ %95, %79 ]
  br i1 %72, label %110, label %103

103:                                              ; preds = %99
  %104 = getelementptr inbounds [100 x [100 x i32]], [100 x [100 x i32]]* %6, i64 0, i64 %101, i64 %76
  %105 = load i32, i32* %104, align 4, !tbaa !5
  %106 = getelementptr inbounds [100 x [100 x i32]], [100 x [100 x i32]]* %5, i64 0, i64 %74, i64 %101
  %107 = load i32, i32* %106, align 4, !tbaa !5
  %108 = mul nsw i32 %105, %107
  %109 = add nsw i32 %108, %102
  br label %110

110:                                              ; preds = %99, %103
  %111 = phi i32 [ %100, %99 ], [ %109, %103 ]
  store i32 %111, i32* %77, align 4, !tbaa !5
  %112 = add nuw nsw i64 %76, 1
  %113 = icmp eq i64 %112, %67
  br i1 %113, label %114, label %75, !llvm.loop !14

114:                                              ; preds = %110
  %115 = add nuw nsw i64 %74, 1
  %116 = icmp eq i64 %115, %66
  br i1 %116, label %133, label %73, !llvm.loop !15

117:                                              ; preds = %51, %117
  %118 = phi i64 [ %121, %117 ], [ 0, %51 ]
  %119 = getelementptr inbounds [100 x [100 x i32]], [100 x [100 x i32]]* %6, i64 0, i64 %54, i64 %118
  %120 = call i32 (i8*, ...) @__isoc99_scanf(i8* getelementptr inbounds ([3 x i8], [3 x i8]* @.str, i64 0, i64 0), i32* nonnull %119)
  %121 = add nuw nsw i64 %118, 1
  %122 = load i32, i32* %4, align 4, !tbaa !5
  %123 = sext i32 %122 to i64
  %124 = icmp slt i64 %121, %123
  br i1 %124, label %117, label %125, !llvm.loop !16

125:                                              ; preds = %117
  %126 = load i32, i32* %3, align 4, !tbaa !5
  br label %127

127:                                              ; preds = %125, %51
  %128 = phi i32 [ %126, %125 ], [ %52, %51 ]
  %129 = phi i32 [ %122, %125 ], [ %53, %51 ]
  %130 = add nuw nsw i64 %54, 1
  %131 = sext i32 %128 to i64
  %132 = icmp slt i64 %130, %131
  br i1 %132, label %51, label %56, !llvm.loop !17

133:                                              ; preds = %114
  %134 = icmp sgt i32 %57, 0
  %135 = select i1 %60, i1 %134, i1 false
  br i1 %135, label %136, label %164

136:                                              ; preds = %133, %63
  br label %137

137:                                              ; preds = %136, %158
  %138 = phi i32 [ %159, %158 ], [ %59, %136 ]
  %139 = phi i32 [ %160, %158 ], [ %57, %136 ]
  %140 = phi i64 [ %161, %158 ], [ 0, %136 ]
  %141 = icmp sgt i32 %139, 0
  br i1 %141, label %142, label %158

142:                                              ; preds = %137, %142
  %143 = phi i64 [ %152, %142 ], [ 0, %137 ]
  %144 = phi i32 [ %153, %142 ], [ %139, %137 ]
  %145 = add nsw i32 %144, -1
  %146 = zext i32 %145 to i64
  %147 = icmp eq i64 %143, %146
  %148 = getelementptr inbounds [100 x [100 x i32]], [100 x [100 x i32]]* %7, i64 0, i64 %140, i64 %143
  %149 = load i32, i32* %148, align 4, !tbaa !5
  %150 = select i1 %147, i8* getelementptr inbounds ([4 x i8], [4 x i8]* @.str.1, i64 0, i64 0), i8* getelementptr inbounds ([4 x i8], [4 x i8]* @.str.2, i64 0, i64 0)
  %151 = call i32 (i8*, ...) @printf(i8* nonnull dereferenceable(1) %150, i32 %149)
  %152 = add nuw nsw i64 %143, 1
  %153 = load i32, i32* %4, align 4, !tbaa !5
  %154 = sext i32 %153 to i64
  %155 = icmp slt i64 %152, %154
  br i1 %155, label %142, label %156, !llvm.loop !18

156:                                              ; preds = %142
  %157 = load i32, i32* %1, align 4, !tbaa !5
  br label %158

158:                                              ; preds = %156, %137
  %159 = phi i32 [ %157, %156 ], [ %138, %137 ]
  %160 = phi i32 [ %153, %156 ], [ %139, %137 ]
  %161 = add nuw nsw i64 %140, 1
  %162 = sext i32 %159 to i64
  %163 = icmp slt i64 %161, %162
  br i1 %163, label %137, label %164, !llvm.loop !19

164:                                              ; preds = %158, %56, %133
  call void @llvm.lifetime.end.p0i8(i64 40000, i8* nonnull %14) #4
  call void @llvm.lifetime.end.p0i8(i64 40000, i8* nonnull %13) #4
  call void @llvm.lifetime.end.p0i8(i64 40000, i8* nonnull %12) #4
  call void @llvm.lifetime.end.p0i8(i64 4, i8* nonnull %11) #4
  call void @llvm.lifetime.end.p0i8(i64 4, i8* nonnull %10) #4
  call void @llvm.lifetime.end.p0i8(i64 4, i8* nonnull %9) #4
  call void @llvm.lifetime.end.p0i8(i64 4, i8* nonnull %8) #4
  ret i32 0
}

; Function Attrs: argmemonly mustprogress nofree nosync nounwind willreturn
declare void @llvm.lifetime.start.p0i8(i64 immarg, i8* nocapture) #1

; Function Attrs: argmemonly mustprogress nofree nounwind willreturn writeonly
declare void @llvm.memset.p0i8.i64(i8* nocapture writeonly, i8, i64, i1 immarg) #2

; Function Attrs: nofree nounwind
declare noundef i32 @__isoc99_scanf(i8* nocapture noundef readonly, ...) local_unnamed_addr #3

; Function Attrs: nofree nounwind
declare noundef i32 @printf(i8* nocapture noundef readonly, ...) local_unnamed_addr #3

; Function Attrs: argmemonly mustprogress nofree nosync nounwind willreturn
declare void @llvm.lifetime.end.p0i8(i64 immarg, i8* nocapture) #1


!llvm.module.flags = !{!0, !1, !2, !3}
!llvm.ident = !{!4}

!0 = !{i32 1, !"wchar_size", i32 4}
!1 = !{i32 7, !"PIC Level", i32 2}
!2 = !{i32 7, !"PIE Level", i32 2}
!3 = !{i32 7, !"uwtable", i32 1}
!4 = !{!"clang version 13.0.0"}
!5 = !{!6, !6, i64 0}
!6 = !{!"int", !7, i64 0}
!7 = !{!"omnipotent char", !8, i64 0}
!8 = !{!"Simple C/C++ TBAA"}
!9 = distinct !{!9, !10}
!10 = !{!"llvm.loop.mustprogress"}
!11 = distinct !{!11, !10, !12}
!12 = !{!"llvm.loop.unswitch.partial.disable"}
!13 = distinct !{!13, !10}
!14 = distinct !{!14, !10}
!15 = distinct !{!15, !10}
!16 = distinct !{!16, !10}
!17 = distinct !{!17, !10, !12}
!18 = distinct !{!18, !10}
!19 = distinct !{!19, !10, !12}
